target datalayout = "e-m:e-p270:32:32-p271:32:32-p272:64:64-i64:64-i128:128-f80:128-n8:16:32:64-S128"
target triple = "x86_64-pc-linux-gnu"

%struct._zval_struct = type { %union._zend_value, %union.anon, %union.anon.2 }
%union._zend_value = type { i64 }
%union.anon = type { i32 }
%union.anon.2 = type { i32 }
%struct._phar_entry_info = type { i32, i32, i32, i32, i32, i32, %struct._phar_metadata_tracker, i32, ptr, i32, i64, i64, i64, ptr, ptr, i32, ptr, ptr, ptr, i8, i32, i16, i16 }
%struct._phar_metadata_tracker = type { %struct._zval_struct, ptr }

; Function Attrs: nounwind uwtable
define internal i32 @phar_update_cached_entry(ptr noundef %0, ptr noundef %1) #0 {
  %3 = alloca ptr, align 8
  %4 = alloca ptr, align 8
  %5 = alloca ptr, align 8
  store ptr %0, ptr %3, align 8
  store ptr %1, ptr %4, align 8
  %6 = load ptr, ptr %3, align 8
  %7 = getelementptr inbounds %struct._zval_struct, ptr %6, i32 0, i32 0
  %8 = load ptr, ptr %7, align 8
  store ptr %8, ptr %5, align 8
  %9 = load ptr, ptr %4, align 8
  %10 = load ptr, ptr %5, align 8
  %11 = getelementptr inbounds %struct._phar_entry_info, ptr %10, i32 0, i32 17
  store ptr %9, ptr %11, align 8
  %12 = load ptr, ptr %5, align 8
  %13 = getelementptr inbounds %struct._phar_entry_info, ptr %12, i32 0, i32 18
  %14 = load ptr, ptr %13, align 8
  %15 = icmp ne ptr %14, null
  br i1 %15, label %16, label %23

16:                                               ; preds = %2
  %17 = load ptr, ptr %5, align 8
  %18 = getelementptr inbounds %struct._phar_entry_info, ptr %17, i32 0, i32 18
  %19 = load ptr, ptr %18, align 8
  %20 = call noalias ptr @_estrdup(ptr noundef %19)
  %21 = load ptr, ptr %5, align 8
  %22 = getelementptr inbounds %struct._phar_entry_info, ptr %21, i32 0, i32 18
  store ptr %20, ptr %22, align 8
  br label %23

23:                                               ; preds = %16, %2
  %24 = load ptr, ptr %5, align 8
  %25 = getelementptr inbounds %struct._phar_entry_info, ptr %24, i32 0, i32 16
  %26 = load ptr, ptr %25, align 8
  %27 = icmp ne ptr %26, null
  br i1 %27, label %28, label %35

28:                                               ; preds = %23
  %29 = load ptr, ptr %5, align 8
  %30 = getelementptr inbounds %struct._phar_entry_info, ptr %29, i32 0, i32 16
  %31 = load ptr, ptr %30, align 8
  %32 = call noalias ptr @_estrdup(ptr noundef %31)
  %33 = load ptr, ptr %5, align 8
  %34 = getelementptr inbounds %struct._phar_entry_info, ptr %33, i32 0, i32 16
  store ptr %32, ptr %34, align 8
  br label %35

35:                                               ; preds = %28, %23
  %36 = load ptr, ptr %5, align 8
  %37 = getelementptr inbounds %struct._phar_entry_info, ptr %36, i32 0, i32 8
  %38 = load ptr, ptr %37, align 8
  %39 = load ptr, ptr %5, align 8
  %40 = getelementptr inbounds %struct._phar_entry_info, ptr %39, i32 0, i32 7
  %41 = load i32, ptr %40, align 8
  %42 = zext i32 %41 to i64
  %43 = call noalias ptr @_estrndup(ptr noundef %38, i64 noundef %42)
  %44 = load ptr, ptr %5, align 8
  %45 = getelementptr inbounds %struct._phar_entry_info, ptr %44, i32 0, i32 8
  store ptr %43, ptr %45, align 8
  %46 = load ptr, ptr %5, align 8
  %47 = getelementptr inbounds %struct._phar_entry_info, ptr %46, i32 0, i32 22
  %48 = load i16, ptr %47, align 2
  %49 = and i16 %48, -257
  %50 = or i16 %49, 0
  store i16 %50, ptr %47, align 2
  %51 = load ptr, ptr %5, align 8
  %52 = getelementptr inbounds %struct._phar_entry_info, ptr %51, i32 0, i32 6
  call void @phar_metadata_tracker_clone(ptr noundef %52)
  ret i32 0
}