; Function Attrs: nounwind uwtable
define internal noundef i32 @phar_update_cached_entry(ptr nocapture noundef readonly %0, ptr noundef %1) #0 {
  %3 = load ptr, ptr %0, align 8
  %4 = getelementptr inbounds i8, ptr %3, i64 128
  store ptr %1, ptr %4, align 8
  %5 = getelementptr inbounds i8, ptr %3, i64 136
  %6 = load ptr, ptr %5, align 8
  %.not = icmp eq ptr %6, null
  br i1 %.not, label %9, label %7

7:                                                ; preds = %2
  %8 = tail call noalias ptr @_estrdup(ptr noundef nonnull %6) #15
  store ptr %8, ptr %5, align 8
  br label %9

9:                                                ; preds = %7, %2
  %10 = getelementptr inbounds i8, ptr %3, i64 120
  %11 = load ptr, ptr %10, align 8
  %.not15 = icmp eq ptr %11, null
  br i1 %.not15, label %14, label %12

12:                                               ; preds = %9
  %13 = tail call noalias ptr @_estrdup(ptr noundef nonnull %11) #15
  store ptr %13, ptr %10, align 8
  br label %14

14:                                               ; preds = %12, %9
  %15 = getelementptr inbounds i8, ptr %3, i64 56
  %16 = load ptr, ptr %15, align 8
  %17 = getelementptr inbounds i8, ptr %3, i64 48
  %18 = load i32, ptr %17, align 8
  %19 = zext i32 %18 to i64
  %20 = tail call noalias ptr @_estrndup(ptr noundef %16, i64 noundef %19) #15
  store ptr %20, ptr %15, align 8
  %21 = getelementptr inbounds i8, ptr %3, i64 154
  %22 = load i16, ptr %21, align 2
  %23 = and i16 %22, -257
  store i16 %23, ptr %21, align 2
  %24 = getelementptr inbounds i8, ptr %3, i64 24
  tail call void @phar_metadata_tracker_clone(ptr noundef nonnull %24) #15
  ret i32 0
}